target datalayout = "e-m:e-p270:32:32-p271:32:32-p272:64:64-i64:64-i128:128-f80:128-n8:16:32:64-S128"
target triple = "x86_64-pc-linux-gnu"

@proto_register_file_pcap.ett = internal global [5 x ptr] [ptr @ett_pcap, ptr @ett_pcap_header, ptr @ett_pcap_packet, ptr @ett_pcap_packet_data, ptr @ett_pcap_timestamp], align 16
@.str.34 = private unnamed_addr constant [17 x i8] c"PCAP File Format\00", align 1
@.str.35 = private unnamed_addr constant [10 x i8] c"File-PCAP\00", align 1
@.str.36 = private unnamed_addr constant [10 x i8] c"file-pcap\00", align 1
@proto_pcap = internal global i32 0, align 4
@.str.37 = private unnamed_addr constant [8 x i8] c"version\00", align 1
@.str.38 = private unnamed_addr constant [20 x i8] c"PCAP version: >=2.4\00", align 1
@.str.39 = private unnamed_addr constant [52 x i8] c"Version of file-format supported by this dissector.\00", align 1
@.str.40 = private unnamed_addr constant [19 x i8] c"dissect_next_layer\00", align 1
@.str.41 = private unnamed_addr constant [19 x i8] c"Dissect next layer\00", align 1
@pref_dissect_next_layer = internal global i8 0, align 1

; Function Attrs: null_pointer_is_valid sspstrong uwtable
define hidden void @proto_register_file_pcap() #0 {
  %1 = alloca ptr, align 8
  %2 = alloca ptr, align 8
  call void @llvm.lifetime.start.p0(i64 8, ptr %1) #6
  call void @llvm.lifetime.start.p0(i64 8, ptr %2) #6
  %3 = call i32 @proto_register_protocol(ptr noundef @.str.34, ptr noundef @.str.35, ptr noundef @.str.36)
  store i32 %3, ptr @proto_pcap, align 4
  %4 = load i32, ptr @proto_pcap, align 4
  call void @proto_register_field_array(i32 noundef %4, ptr noundef @proto_register_file_pcap.hf, i32 noundef 15)
  call void @proto_register_subtree_array(ptr noundef @proto_register_file_pcap.ett, i32 noundef 5)
  %5 = load i32, ptr @proto_pcap, align 4
  %6 = call ptr @expert_register_protocol(i32 noundef %5)
  store ptr %6, ptr %2, align 8
  %7 = load ptr, ptr %2, align 8
  call void @expert_register_field_array(ptr noundef %7, ptr noundef @proto_register_file_pcap.ei, i32 noundef 2)
  %8 = load i32, ptr @proto_pcap, align 4
  %9 = call ptr @register_dissector(ptr noundef @.str.36, ptr noundef @dissect_pcap, i32 noundef %8)
  %10 = load i32, ptr @proto_pcap, align 4
  %11 = call ptr @prefs_register_protocol(i32 noundef %10, ptr noundef null)
  store ptr %11, ptr %1, align 8
  %12 = load ptr, ptr %1, align 8
  call void @prefs_register_static_text_preference(ptr noundef %12, ptr noundef @.str.37, ptr noundef @.str.38, ptr noundef @.str.39)
  %13 = load ptr, ptr %1, align 8
  call void @prefs_register_bool_preference(ptr noundef %13, ptr noundef @.str.40, ptr noundef @.str.41, ptr noundef @.str.41, ptr noundef @pref_dissect_next_layer)
  call void @llvm.lifetime.end.p0(i64 8, ptr %2) #6
  call void @llvm.lifetime.end.p0(i64 8, ptr %1) #6
  ret void
}