; Function Attrs: null_pointer_is_valid sspstrong uwtable
define hidden void @proto_register_file_pcap() local_unnamed_addr #0 {
  %1 = tail call i32 @proto_register_protocol(ptr noundef nonnull @.str.34, ptr noundef nonnull @.str.35, ptr noundef nonnull @.str.36)
  store i32 %1, ptr @proto_pcap, align 4
  tail call void @proto_register_field_array(i32 noundef %1, ptr noundef nonnull @proto_register_file_pcap.hf, i32 noundef 15)
  tail call void @proto_register_subtree_array(ptr noundef nonnull @proto_register_file_pcap.ett, i32 noundef 5)
  %2 = load i32, ptr @proto_pcap, align 4
  %3 = tail call ptr @expert_register_protocol(i32 noundef %2)
  tail call void @expert_register_field_array(ptr noundef %3, ptr noundef nonnull @proto_register_file_pcap.ei, i32 noundef 2)
  %4 = load i32, ptr @proto_pcap, align 4
  %5 = tail call ptr @register_dissector(ptr noundef nonnull @.str.36, ptr noundef nonnull @dissect_pcap, i32 noundef %4)
  %6 = load i32, ptr @proto_pcap, align 4
  %7 = tail call ptr @prefs_register_protocol(i32 noundef %6, ptr noundef null)
  tail call void @prefs_register_static_text_preference(ptr noundef %7, ptr noundef nonnull @.str.37, ptr noundef nonnull @.str.38, ptr noundef nonnull @.str.39)
  tail call void @prefs_register_bool_preference(ptr noundef %7, ptr noundef nonnull @.str.40, ptr noundef nonnull @.str.41, ptr noundef nonnull @.str.41, ptr noundef nonnull @pref_dissect_next_layer)
  ret void
}